target datalayout = "e-m:e-p270:32:32-p271:32:32-p272:64:64-i64:64-i128:128-f80:128-n8:16:32:64-S128"
target triple = "x86_64-pc-linux-gnu"

%struct.evthread_lock_callbacks = type { i32, i32, ptr, ptr, ptr, ptr }
%struct.arc4_stream = type { i8, i8, [256 x i8] }

@arc4rand_lock = internal global ptr null, align 8
@evthread_lock_fns_ = external global %struct.evthread_lock_callbacks, align 8
@rs_initialized = internal global i32 0, align 4
@rs = internal global %struct.arc4_stream zeroinitializer, align 1

; Function Attrs: inlinehint nounwind uwtable
define internal void @arc4_addrandom(ptr noundef %0, i32 noundef %1) #3 {
  %3 = alloca ptr, align 8
  %4 = alloca i32, align 4
  %5 = alloca i32, align 4
  %6 = alloca i8, align 1
  store ptr %0, ptr %3, align 8
  store i32 %1, ptr %4, align 4
  call void @llvm.lifetime.start.p0(i64 4, ptr %5) #6
  call void @llvm.lifetime.start.p0(i64 1, ptr %6) #6
  %7 = load i8, ptr @rs, align 1
  %8 = add i8 %7, -1
  store i8 %8, ptr @rs, align 1
  store i32 0, ptr %5, align 4
  br label %9

9:                                                ; preds = %47, %2
  %10 = load i32, ptr %5, align 4
  %11 = icmp slt i32 %10, 256
  br i1 %11, label %12, label %50

12:                                               ; preds = %9
  %13 = load i8, ptr @rs, align 1
  %14 = zext i8 %13 to i32
  %15 = add nsw i32 %14, 1
  %16 = trunc i32 %15 to i8
  store i8 %16, ptr @rs, align 1
  %17 = load i8, ptr @rs, align 1
  %18 = zext i8 %17 to i64
  %19 = getelementptr inbounds nuw [256 x i8], ptr getelementptr inbounds nuw (%struct.arc4_stream, ptr @rs, i32 0, i32 2), i64 0, i64 %18
  %20 = load i8, ptr %19, align 1
  store i8 %20, ptr %6, align 1
  %21 = load i8, ptr getelementptr inbounds nuw (%struct.arc4_stream, ptr @rs, i32 0, i32 1), align 1
  %22 = zext i8 %21 to i32
  %23 = load i8, ptr %6, align 1
  %24 = zext i8 %23 to i32
  %25 = add nsw i32 %22, %24
  %26 = load ptr, ptr %3, align 8
  %27 = load i32, ptr %5, align 4
  %28 = load i32, ptr %4, align 4
  %29 = srem i32 %27, %28
  %30 = sext i32 %29 to i64
  %31 = getelementptr inbounds i8, ptr %26, i64 %30
  %32 = load i8, ptr %31, align 1
  %33 = zext i8 %32 to i32
  %34 = add nsw i32 %25, %33
  %35 = trunc i32 %34 to i8
  store i8 %35, ptr getelementptr inbounds nuw (%struct.arc4_stream, ptr @rs, i32 0, i32 1), align 1
  %36 = load i8, ptr getelementptr inbounds nuw (%struct.arc4_stream, ptr @rs, i32 0, i32 1), align 1
  %37 = zext i8 %36 to i64
  %38 = getelementptr inbounds nuw [256 x i8], ptr getelementptr inbounds nuw (%struct.arc4_stream, ptr @rs, i32 0, i32 2), i64 0, i64 %37
  %39 = load i8, ptr %38, align 1
  %40 = load i8, ptr @rs, align 1
  %41 = zext i8 %40 to i64
  %42 = getelementptr inbounds nuw [256 x i8], ptr getelementptr inbounds nuw (%struct.arc4_stream, ptr @rs, i32 0, i32 2), i64 0, i64 %41
  store i8 %39, ptr %42, align 1
  %43 = load i8, ptr %6, align 1
  %44 = load i8, ptr getelementptr inbounds nuw (%struct.arc4_stream, ptr @rs, i32 0, i32 1), align 1
  %45 = zext i8 %44 to i64
  %46 = getelementptr inbounds nuw [256 x i8], ptr getelementptr inbounds nuw (%struct.arc4_stream, ptr @rs, i32 0, i32 2), i64 0, i64 %45
  store i8 %43, ptr %46, align 1
  br label %47

47:                                               ; preds = %12
  %48 = load i32, ptr %5, align 4
  %49 = add nsw i32 %48, 1
  store i32 %49, ptr %5, align 4
  br label %9, !llvm.loop !11

50:                                               ; preds = %9
  %51 = load i8, ptr @rs, align 1
  store i8 %51, ptr getelementptr inbounds nuw (%struct.arc4_stream, ptr @rs, i32 0, i32 1), align 1
  call void @llvm.lifetime.end.p0(i64 1, ptr %6) #6
  call void @llvm.lifetime.end.p0(i64 4, ptr %5) #6
  ret void
}

; Function Attrs: nounwind uwtable
define internal void @arc4random_addrandom(ptr noundef %0, i32 noundef %1) #0 {
  %3 = alloca ptr, align 8
  %4 = alloca i32, align 4
  %5 = alloca i32, align 4
  store ptr %0, ptr %3, align 8
  store i32 %1, ptr %4, align 4
  call void @llvm.lifetime.start.p0(i64 4, ptr %5) #6
  br label %6

6:                                                ; preds = %2
  %7 = load ptr, ptr @arc4rand_lock, align 8
  %8 = icmp ne ptr %7, null
  br i1 %8, label %9, label %13

9:                                                ; preds = %6
  %10 = load ptr, ptr getelementptr inbounds nuw (%struct.evthread_lock_callbacks, ptr @evthread_lock_fns_, i32 0, i32 4), align 8
  %11 = load ptr, ptr @arc4rand_lock, align 8
  %12 = call i32 %10(i32 noundef 0, ptr noundef %11)
  br label %13

13:                                               ; preds = %9, %6
  br label %14

14:                                               ; preds = %13
  br label %15

15:                                               ; preds = %14
  %16 = load i32, ptr @rs_initialized, align 4
  %17 = icmp ne i32 %16, 0
  br i1 %17, label %20, label %18

18:                                               ; preds = %15
  %19 = call i32 @arc4_stir()
  br label %20

20:                                               ; preds = %18, %15
  store i32 0, ptr %5, align 4
  br label %21

21:                                               ; preds = %33, %20
  %22 = load i32, ptr %5, align 4
  %23 = load i32, ptr %4, align 4
  %24 = icmp slt i32 %22, %23
  br i1 %24, label %25, label %36

25:                                               ; preds = %21
  %26 = load ptr, ptr %3, align 8
  %27 = load i32, ptr %5, align 4
  %28 = sext i32 %27 to i64
  %29 = getelementptr inbounds i8, ptr %26, i64 %28
  %30 = load i32, ptr %4, align 4
  %31 = load i32, ptr %5, align 4
  %32 = sub nsw i32 %30, %31
  call void @arc4_addrandom(ptr noundef %29, i32 noundef %32)
  br label %33

33:                                               ; preds = %25
  %34 = load i32, ptr %5, align 4
  %35 = add nsw i32 %34, 256
  store i32 %35, ptr %5, align 4
  br label %21, !llvm.loop !5

36:                                               ; preds = %21
  br label %37

37:                                               ; preds = %36
  %38 = load ptr, ptr @arc4rand_lock, align 8
  %39 = icmp ne ptr %38, null
  br i1 %39, label %40, label %44

40:                                               ; preds = %37
  %41 = load ptr, ptr getelementptr inbounds nuw (%struct.evthread_lock_callbacks, ptr @evthread_lock_fns_, i32 0, i32 5), align 8
  %42 = load ptr, ptr @arc4rand_lock, align 8
  %43 = call i32 %41(i32 noundef 0, ptr noundef %42)
  br label %44

44:                                               ; preds = %40, %37
  br label %45

45:                                               ; preds = %44
  br label %46

46:                                               ; preds = %45
  call void @llvm.lifetime.end.p0(i64 4, ptr %5) #6
  ret void
}

; Function Attrs: nounwind uwtable
define void @evutil_secure_rng_add_bytes(ptr noundef %0, i64 noundef %1) #0 {
  %3 = alloca ptr, align 8
  %4 = alloca i64, align 8
  store ptr %0, ptr %3, align 8
  store i64 %1, ptr %4, align 8
  %5 = load ptr, ptr %3, align 8
  %6 = load i64, ptr %4, align 8
  %7 = icmp ugt i64 %6, 2147483647
  br i1 %7, label %8, label %9

8:                                                ; preds = %2
  br label %12

9:                                                ; preds = %2
  %10 = load i64, ptr %4, align 8
  %11 = trunc i64 %10 to i32
  br label %12

12:                                               ; preds = %9, %8
  %13 = phi i32 [ 2147483647, %8 ], [ %11, %9 ]
  call void @arc4random_addrandom(ptr noundef %5, i32 noundef %13)
  ret void
}