; Function Attrs: nounwind uwtable
define void @evutil_secure_rng_add_bytes(ptr noundef readonly captures(none) %0, i64 noundef %1) local_unnamed_addr #0 {
  %3 = tail call i64 @llvm.umin.i64(i64 %1, i64 2147483647)
  %4 = trunc nuw nsw i64 %3 to i32
  %5 = load ptr, ptr @arc4rand_lock, align 8
  %.not.i = icmp eq ptr %5, null
  br i1 %.not.i, label %9, label %6

6:                                                ; preds = %2
  %7 = load ptr, ptr getelementptr inbounds nuw (i8, ptr @evthread_lock_fns_, i64 24), align 8
  %8 = tail call i32 %7(i32 noundef 0, ptr noundef nonnull %5) #7
  br label %9

9:                                                ; preds = %6, %2
  %.b.i = load i1, ptr @rs_initialized, align 4
  br i1 %.b.i, label %12, label %10

10:                                               ; preds = %9
  %11 = tail call fastcc i32 @arc4_stir()
  br label %12

12:                                               ; preds = %10, %9
  %.not = icmp eq i64 %1, 0
  br i1 %.not, label %35, label %.lr.ph.preheader.i

.lr.ph.preheader.i:                               ; preds = %12
  %.promoted.i = load i8, ptr getelementptr inbounds nuw (i8, ptr @rs, i64 1), align 1
  %rs.promoted.i = load i8, ptr @rs, align 1
  %13 = add i8 %rs.promoted.i, -1
  br label %.lr.ph.i

.lr.ph.i:                                         ; preds = %arc4_addrandom.exit.i, %.lr.ph.preheader.i
  %indvars.iv.i = phi i64 [ 0, %.lr.ph.preheader.i ], [ %indvars.iv.next.i, %arc4_addrandom.exit.i ]
  %.lcssa1013.i = phi i8 [ %13, %.lr.ph.preheader.i ], [ %18, %arc4_addrandom.exit.i ]
  %.lcssa1112.i = phi i8 [ %.promoted.i, %.lr.ph.preheader.i ], [ %.lcssa1013.i, %arc4_addrandom.exit.i ]
  %14 = getelementptr inbounds nuw i8, ptr %0, i64 %indvars.iv.i
  %15 = trunc i64 %indvars.iv.i to i32
  %16 = sub i32 %4, %15
  br label %17

17:                                               ; preds = %17, %.lr.ph.i
  %.07.i.i = phi i32 [ 0, %.lr.ph.i ], [ %33, %17 ]
  %18 = phi i8 [ %.lcssa1013.i, %.lr.ph.i ], [ %20, %17 ]
  %19 = phi i8 [ %.lcssa1112.i, %.lr.ph.i ], [ %29, %17 ]
  %20 = add i8 %18, 1
  %21 = zext i8 %20 to i64
  %22 = getelementptr inbounds nuw [256 x i8], ptr getelementptr inbounds nuw (i8, ptr @rs, i64 2), i64 0, i64 %21
  %23 = load i8, ptr %22, align 1
  %24 = add i8 %23, %19
  %25 = srem i32 %.07.i.i, %16
  %26 = zext nneg i32 %25 to i64
  %27 = getelementptr inbounds nuw i8, ptr %14, i64 %26
  %28 = load i8, ptr %27, align 1
  %29 = add i8 %24, %28
  %30 = zext i8 %29 to i64
  %31 = getelementptr inbounds nuw [256 x i8], ptr getelementptr inbounds nuw (i8, ptr @rs, i64 2), i64 0, i64 %30
  %32 = load i8, ptr %31, align 1
  store i8 %32, ptr %22, align 1
  store i8 %23, ptr %31, align 1
  %33 = add nuw nsw i32 %.07.i.i, 1
  %exitcond.not.i.i = icmp eq i32 %33, 256
  br i1 %exitcond.not.i.i, label %arc4_addrandom.exit.i, label %17, !llvm.loop !6

arc4_addrandom.exit.i:                            ; preds = %17
  %indvars.iv.next.i = add nuw nsw i64 %indvars.iv.i, 256
  %34 = icmp samesign ult i64 %indvars.iv.next.i, %3
  br i1 %34, label %.lr.ph.i, label %._crit_edge.i, !llvm.loop !12

._crit_edge.i:                                    ; preds = %arc4_addrandom.exit.i
  store i8 %.lcssa1013.i, ptr @rs, align 1
  store i8 %.lcssa1013.i, ptr getelementptr inbounds nuw (i8, ptr @rs, i64 1), align 1
  br label %35

35:                                               ; preds = %._crit_edge.i, %12
  %36 = load ptr, ptr @arc4rand_lock, align 8
  %.not9.i = icmp eq ptr %36, null
  br i1 %.not9.i, label %arc4random_addrandom.exit, label %37

37:                                               ; preds = %35
  %38 = load ptr, ptr getelementptr inbounds nuw (i8, ptr @evthread_lock_fns_, i64 32), align 8
  %39 = tail call i32 %38(i32 noundef 0, ptr noundef nonnull %36) #7
  br label %arc4random_addrandom.exit

arc4random_addrandom.exit:                        ; preds = %35, %37
  ret void
}